; ModuleID = '49/10.c'
source_filename = "49/10.c"
target datalayout = "e-m:e-p270:32:32-p271:32:32-p272:64:64-i64:64-f80:128-n8:16:32:64-S128"
target triple = "x86_64-pc-linux-gnu"

@.str = private unnamed_addr constant [4 x i8] c"%s\0A\00", align 1

; Function Attrs: noinline nounwind uwtable
define dso_local void @main() #0 {
  %1 = alloca i32, align 4
  %2 = alloca i32, align 4
  %3 = alloca i32, align 4
  %4 = alloca i32, align 4
  %5 = alloca i32, align 4
  %6 = alloca i32, align 4
  %7 = alloca [500 x i8], align 16
  %8 = alloca [500 x i8], align 16
  %9 = alloca [500 x i8], align 16
  %10 = getelementptr inbounds [500 x i8], [500 x i8]* %7, i64 0, i64 0
  %11 = call i32 (i8*, ...) bitcast (i32 (...)* @gets to i32 (i8*, ...)*)(i8* %10)
  %12 = getelementptr inbounds [500 x i8], [500 x i8]* %7, i64 0, i64 0
  %13 = call i64 @strlen(i8* %12) #4
  %14 = trunc i64 %13 to i32
  store i32 %14, i32* %1, align 4
  store i32 2, i32* %6, align 4
  br label %15

15:                                               ; preds = %69, %0
  %16 = load i32, i32* %6, align 4
  %17 = load i32, i32* %1, align 4
  %18 = icmp sle i32 %16, %17
  br i1 %18, label %19, label %72

19:                                               ; preds = %15
  store i32 0, i32* %2, align 4
  br label %20

20:                                               ; preds = %65, %19
  %21 = load i32, i32* %2, align 4
  %22 = load i32, i32* %1, align 4
  %23 = icmp slt i32 %21, %22
  br i1 %23, label %24, label %68

24:                                               ; preds = %20
  %25 = load i32, i32* %2, align 4
  store i32 %25, i32* %5, align 4
  %26 = bitcast [500 x i8]* %8 to i8*
  call void @llvm.memset.p0i8.i64(i8* align 16 %26, i8 0, i64 500, i1 false)
  %27 = bitcast [500 x i8]* %9 to i8*
  call void @llvm.memset.p0i8.i64(i8* align 16 %27, i8 0, i64 500, i1 false)
  store i32 0, i32* %3, align 4
  %28 = load i32, i32* %2, align 4
  store i32 %28, i32* %5, align 4
  br label %29

29:                                               ; preds = %51, %24
  %30 = load i32, i32* %3, align 4
  %31 = load i32, i32* %6, align 4
  %32 = icmp slt i32 %30, %31
  br i1 %32, label %33, label %56

33:                                               ; preds = %29
  %34 = load i32, i32* %5, align 4
  %35 = sext i32 %34 to i64
  %36 = getelementptr inbounds [500 x i8], [500 x i8]* %7, i64 0, i64 %35
  %37 = load i8, i8* %36, align 1
  %38 = load i32, i32* %3, align 4
  %39 = sext i32 %38 to i64
  %40 = getelementptr inbounds [500 x i8], [500 x i8]* %8, i64 0, i64 %39
  store i8 %37, i8* %40, align 1
  %41 = load i32, i32* %5, align 4
  %42 = sext i32 %41 to i64
  %43 = getelementptr inbounds [500 x i8], [500 x i8]* %7, i64 0, i64 %42
  %44 = load i8, i8* %43, align 1
  %45 = load i32, i32* %6, align 4
  %46 = sub nsw i32 %45, 1
  %47 = load i32, i32* %3, align 4
  %48 = sub nsw i32 %46, %47
  %49 = sext i32 %48 to i64
  %50 = getelementptr inbounds [500 x i8], [500 x i8]* %9, i64 0, i64 %49
  store i8 %44, i8* %50, align 1
  br label %51

51:                                               ; preds = %33
  %52 = load i32, i32* %3, align 4
  %53 = add nsw i32 %52, 1
  store i32 %53, i32* %3, align 4
  %54 = load i32, i32* %5, align 4
  %55 = add nsw i32 %54, 1
  store i32 %55, i32* %5, align 4
  br label %29

56:                                               ; preds = %29
  %57 = getelementptr inbounds [500 x i8], [500 x i8]* %8, i64 0, i64 0
  %58 = getelementptr inbounds [500 x i8], [500 x i8]* %9, i64 0, i64 0
  %59 = call i32 @strcmp(i8* %57, i8* %58) #4
  %60 = icmp eq i32 %59, 0
  br i1 %60, label %61, label %64

61:                                               ; preds = %56
  %62 = getelementptr inbounds [500 x i8], [500 x i8]* %8, i64 0, i64 0
  %63 = call i32 (i8*, ...) @printf(i8* getelementptr inbounds ([4 x i8], [4 x i8]* @.str, i64 0, i64 0), i8* %62)
  br label %64

64:                                               ; preds = %61, %56
  br label %65

65:                                               ; preds = %64
  %66 = load i32, i32* %2, align 4
  %67 = add nsw i32 %66, 1
  store i32 %67, i32* %2, align 4
  br label %20

68:                                               ; preds = %20
  br label %69

69:                                               ; preds = %68
  %70 = load i32, i32* %6, align 4
  %71 = add nsw i32 %70, 1
  store i32 %71, i32* %6, align 4
  br label %15

72:                                               ; preds = %15
  ret void
}

declare dso_local i32 @gets(...) #1

; Function Attrs: nounwind readonly
declare dso_local i64 @strlen(i8*) #2

; Function Attrs: argmemonly nounwind willreturn
declare void @llvm.memset.p0i8.i64(i8* nocapture writeonly, i8, i64, i1 immarg) #3

; Function Attrs: nounwind readonly
declare dso_local i32 @strcmp(i8*, i8*) #2

declare dso_local i32 @printf(i8*, ...) #1


!llvm.module.flags = !{!0}
!llvm.ident = !{!1}

!0 = !{i32 1, !"wchar_size", i32 4}
!1 = !{!"clang version 10.0.0-4ubuntu1 "}
